target datalayout = "e-m:e-p270:32:32-p271:32:32-p272:64:64-i64:64-i128:128-f80:128-n8:16:32:64-S128"
target triple = "x86_64-pc-linux-gnu"

%struct._object = type { %union.anon, ptr }
%union.anon = type { i64 }
%struct.ProfilerObject = type { %struct._object, ptr, ptr, ptr, i32, ptr, double, i32, ptr }

; Function Attrs: inlinehint nounwind uwtable
define internal ptr @_Py_TYPE(ptr noundef %0) #1 {
  %2 = alloca ptr, align 8
  store ptr %0, ptr %2, align 8, !tbaa !3
  %3 = load ptr, ptr %2, align 8, !tbaa !3
  %4 = getelementptr inbounds nuw %struct._object, ptr %3, i32 0, i32 1
  %5 = load ptr, ptr %4, align 8, !tbaa !23
  ret ptr %5
}

; Function Attrs: nounwind uwtable
define internal i32 @profiler_traverse(ptr noundef %0, ptr noundef %1, ptr noundef %2) #0 {
  %4 = alloca i32, align 4
  %5 = alloca ptr, align 8
  %6 = alloca ptr, align 8
  %7 = alloca ptr, align 8
  %8 = alloca i32, align 4
  %9 = alloca i32, align 4
  %10 = alloca i32, align 4
  store ptr %0, ptr %5, align 8, !tbaa !24
  store ptr %1, ptr %6, align 8, !tbaa !24
  store ptr %2, ptr %7, align 8, !tbaa !24
  br label %11

11:                                               ; preds = %3
  %12 = load ptr, ptr %5, align 8, !tbaa !24
  %13 = call ptr @_Py_TYPE(ptr noundef %12)
  %14 = icmp ne ptr %13, null
  br i1 %14, label %15, label %29

15:                                               ; preds = %11
  call void @llvm.lifetime.start.p0(i64 4, ptr %8) #6
  %16 = load ptr, ptr %6, align 8, !tbaa !24
  %17 = load ptr, ptr %5, align 8, !tbaa !24
  %18 = call ptr @_Py_TYPE(ptr noundef %17)
  %19 = load ptr, ptr %7, align 8, !tbaa !24
  %20 = call i32 %16(ptr noundef %18, ptr noundef %19)
  store i32 %20, ptr %8, align 4, !tbaa !22
  %21 = load i32, ptr %8, align 4, !tbaa !22
  %22 = icmp ne i32 %21, 0
  br i1 %22, label %23, label %25

23:                                               ; preds = %15
  %24 = load i32, ptr %8, align 4, !tbaa !22
  store i32 %24, ptr %4, align 4
  store i32 1, ptr %9, align 4
  br label %26

25:                                               ; preds = %15
  store i32 0, ptr %9, align 4
  br label %26

26:                                               ; preds = %25, %23
  call void @llvm.lifetime.end.p0(i64 4, ptr %8) #6
  %27 = load i32, ptr %9, align 4
  switch i32 %27, label %55 [
    i32 0, label %28
    i32 1, label %53
  ]

28:                                               ; preds = %26
  br label %29

29:                                               ; preds = %28, %11
  br label %30

30:                                               ; preds = %29
  br label %31

31:                                               ; preds = %30
  %32 = load ptr, ptr %5, align 8, !tbaa !24
  %33 = getelementptr inbounds nuw %struct.ProfilerObject, ptr %32, i32 0, i32 5
  %34 = load ptr, ptr %33, align 8, !tbaa !38
  %35 = icmp ne ptr %34, null
  br i1 %35, label %36, label %51

36:                                               ; preds = %31
  call void @llvm.lifetime.start.p0(i64 4, ptr %10) #6
  %37 = load ptr, ptr %6, align 8, !tbaa !24
  %38 = load ptr, ptr %5, align 8, !tbaa !24
  %39 = getelementptr inbounds nuw %struct.ProfilerObject, ptr %38, i32 0, i32 5
  %40 = load ptr, ptr %39, align 8, !tbaa !38
  %41 = load ptr, ptr %7, align 8, !tbaa !24
  %42 = call i32 %37(ptr noundef %40, ptr noundef %41)
  store i32 %42, ptr %10, align 4, !tbaa !22
  %43 = load i32, ptr %10, align 4, !tbaa !22
  %44 = icmp ne i32 %43, 0
  br i1 %44, label %45, label %47

45:                                               ; preds = %36
  %46 = load i32, ptr %10, align 4, !tbaa !22
  store i32 %46, ptr %4, align 4
  store i32 1, ptr %9, align 4
  br label %48

47:                                               ; preds = %36
  store i32 0, ptr %9, align 4
  br label %48

48:                                               ; preds = %47, %45
  call void @llvm.lifetime.end.p0(i64 4, ptr %10) #6
  %49 = load i32, ptr %9, align 4
  switch i32 %49, label %55 [
    i32 0, label %50
    i32 1, label %53
  ]

50:                                               ; preds = %48
  br label %51

51:                                               ; preds = %50, %31
  br label %52

52:                                               ; preds = %51
  store i32 0, ptr %4, align 4
  br label %53

53:                                               ; preds = %52, %48, %26
  %54 = load i32, ptr %4, align 4
  ret i32 %54

55:                                               ; preds = %48, %26
  unreachable
}